#include <math.h>
#include <stdio.h>
#include <stdlib.h>
#include <string.h>

int main(){
int a,b,c,i,j,n;
int z[100],m[100];
scanf("%d",&n);
for(i=0;i<n;i++){
	scanf("%d",&z[i]);
	a=1;
	b=1;
    if(z[i]==1){
		m[i]=1;
	}else{
		if(z[i]==2){m[i]=1;}
		else{for(j=0;j<(z[i]-2);j++){m[i]=a+b;a=b;b=m[i];}}}}
 for(i=0;i<n;i++){
	  printf("%d\n",m[i]);
  }
  return 0;
}
		
		